; Function Attrs: nounwind uwtable
define hidden i32 @ir_var(ptr noundef %0, i32 noundef %1, i32 noundef %2, ptr noundef %3) local_unnamed_addr #0 {
  %5 = getelementptr inbounds i8, ptr %0, i64 336
  %6 = load ptr, ptr %5, align 8
  %.not.i = icmp eq ptr %6, null
  br i1 %.not.i, label %7, label %ir_str.exit

7:                                                ; preds = %4
  tail call void @ir_strtab_init(ptr noundef nonnull %5, i32 noundef 64, i32 noundef 4096) #20
  br label %ir_str.exit

ir_str.exit:                                      ; preds = %4, %7
  %8 = tail call i64 @strlen(ptr noundef nonnull dereferenceable(1) %3) #25
  %9 = trunc i64 %8 to i32
  %10 = getelementptr inbounds i8, ptr %0, i64 352
  %11 = load i32, ptr %10, align 8
  %12 = add i32 %11, 1
  %13 = tail call i32 @ir_strtab_lookup(ptr noundef nonnull %5, ptr noundef %3, i32 noundef %9, i32 noundef %12) #20
  %14 = getelementptr inbounds i8, ptr %0, i64 8
  %15 = load i32, ptr %14, align 8
  %16 = getelementptr inbounds i8, ptr %0, i64 12
  %17 = load i32, ptr %16, align 4
  %.not.i.i = icmp slt i32 %15, %17
  %.pre.i = load ptr, ptr %0, align 8
  br i1 %.not.i.i, label %ir_emit.exit, label %18

18:                                               ; preds = %ir_str.exit
  %19 = getelementptr inbounds i8, ptr %0, i64 20
  %20 = load i32, ptr %19, align 4
  %21 = icmp slt i32 %17, 4096
  %22 = shl nsw i32 %17, 1
  %23 = icmp ult i32 %17, 8192
  %24 = add nuw nsw i32 %17, 4096
  %spec.select.i.i.i = select i1 %23, i32 8192, i32 %24
  %.sink.i.i.i = select i1 %21, i32 %22, i32 %spec.select.i.i.i
  store i32 %.sink.i.i.i, ptr %16, align 4
  %25 = sext i32 %20 to i64
  %26 = sub nsw i64 0, %25
  %27 = getelementptr inbounds %struct._ir_insn, ptr %.pre.i, i64 %26
  %28 = add nsw i32 %20, %.sink.i.i.i
  %29 = sext i32 %28 to i64
  %30 = shl nsw i64 %29, 4
  %31 = tail call ptr @_erealloc(ptr noundef %27, i64 noundef %30) #24
  %32 = load i32, ptr %19, align 4
  %33 = sext i32 %32 to i64
  %34 = getelementptr inbounds %struct._ir_insn, ptr %31, i64 %33
  store ptr %34, ptr %0, align 8
  br label %ir_emit.exit

ir_emit.exit:                                     ; preds = %ir_str.exit, %18
  %35 = phi ptr [ %.pre.i, %ir_str.exit ], [ %34, %18 ]
  %36 = shl i32 %1, 8
  %37 = and i32 %36, 16776960
  %38 = or disjoint i32 %37, 64
  %39 = add nsw i32 %15, 1
  store i32 %39, ptr %14, align 8
  %40 = sext i32 %15 to i64
  %41 = getelementptr inbounds %struct._ir_insn, ptr %35, i64 %40
  store i32 %38, ptr %41, align 8
  %42 = getelementptr inbounds i8, ptr %41, i64 4
  store i32 %2, ptr %42, align 4
  %43 = getelementptr inbounds i8, ptr %41, i64 8
  store i32 %13, ptr %43, align 8
  %44 = getelementptr inbounds i8, ptr %41, i64 12
  store i32 0, ptr %44, align 4
  ret i32 %15
}